; ModuleID = '5/1167.c'
source_filename = "5/1167.c"
target datalayout = "e-m:e-p270:32:32-p271:32:32-p272:64:64-i64:64-f80:128-n8:16:32:64-S128"
target triple = "x86_64-pc-linux-gnu"

@.str = private unnamed_addr constant [5 x i8] c"%lf\0A\00", align 1
@.str.1 = private unnamed_addr constant [4 x i8] c"%s\0A\00", align 1
@.str.2 = private unnamed_addr constant [3 x i8] c"%s\00", align 1
@.str.3 = private unnamed_addr constant [6 x i8] c"error\00", align 1
@.str.4 = private unnamed_addr constant [4 x i8] c"yes\00", align 1
@.str.5 = private unnamed_addr constant [3 x i8] c"no\00", align 1

; Function Attrs: noinline nounwind uwtable
define dso_local i32 @main() #0 {
  %1 = alloca i32, align 4
  %2 = alloca double, align 8
  %3 = alloca [501 x i8], align 16
  %4 = alloca [501 x i8], align 16
  %5 = alloca i32, align 4
  %6 = alloca i32, align 4
  %7 = alloca i32, align 4
  %8 = alloca i32, align 4
  %9 = alloca double, align 8
  %10 = alloca i32, align 4
  store i32 0, i32* %1, align 4
  %11 = call i32 (i8*, ...) @__isoc99_scanf(i8* getelementptr inbounds ([5 x i8], [5 x i8]* @.str, i64 0, i64 0), double* %2)
  %12 = getelementptr inbounds [501 x i8], [501 x i8]* %3, i64 0, i64 0
  %13 = call i32 (i8*, ...) @__isoc99_scanf(i8* getelementptr inbounds ([4 x i8], [4 x i8]* @.str.1, i64 0, i64 0), i8* %12)
  %14 = getelementptr inbounds [501 x i8], [501 x i8]* %4, i64 0, i64 0
  %15 = call i32 (i8*, ...) @__isoc99_scanf(i8* getelementptr inbounds ([3 x i8], [3 x i8]* @.str.2, i64 0, i64 0), i8* %14)
  store i32 0, i32* %6, align 4
  store i32 0, i32* %5, align 4
  br label %16

16:                                               ; preds = %52, %0
  %17 = load i32, i32* %5, align 4
  %18 = sext i32 %17 to i64
  %19 = getelementptr inbounds [501 x i8], [501 x i8]* %3, i64 0, i64 0
  %20 = call i64 @strlen(i8* %19) #3
  %21 = icmp ult i64 %18, %20
  br i1 %21, label %22, label %55

22:                                               ; preds = %16
  %23 = load i32, i32* %5, align 4
  %24 = sext i32 %23 to i64
  %25 = getelementptr inbounds [501 x i8], [501 x i8]* %3, i64 0, i64 %24
  %26 = load i8, i8* %25, align 1
  %27 = sext i8 %26 to i32
  %28 = icmp ne i32 %27, 65
  br i1 %28, label %29, label %51

29:                                               ; preds = %22
  %30 = load i32, i32* %5, align 4
  %31 = sext i32 %30 to i64
  %32 = getelementptr inbounds [501 x i8], [501 x i8]* %3, i64 0, i64 %31
  %33 = load i8, i8* %32, align 1
  %34 = sext i8 %33 to i32
  %35 = icmp ne i32 %34, 84
  br i1 %35, label %36, label %51

36:                                               ; preds = %29
  %37 = load i32, i32* %5, align 4
  %38 = sext i32 %37 to i64
  %39 = getelementptr inbounds [501 x i8], [501 x i8]* %3, i64 0, i64 %38
  %40 = load i8, i8* %39, align 1
  %41 = sext i8 %40 to i32
  %42 = icmp ne i32 %41, 67
  br i1 %42, label %43, label %51

43:                                               ; preds = %36
  %44 = load i32, i32* %5, align 4
  %45 = sext i32 %44 to i64
  %46 = getelementptr inbounds [501 x i8], [501 x i8]* %3, i64 0, i64 %45
  %47 = load i8, i8* %46, align 1
  %48 = sext i8 %47 to i32
  %49 = icmp ne i32 %48, 71
  br i1 %49, label %50, label %51

50:                                               ; preds = %43
  store i32 1, i32* %6, align 4
  br label %51

51:                                               ; preds = %50, %43, %36, %29, %22
  br label %52

52:                                               ; preds = %51
  %53 = load i32, i32* %5, align 4
  %54 = add nsw i32 %53, 1
  store i32 %54, i32* %5, align 4
  br label %16

55:                                               ; preds = %16
  store i32 0, i32* %5, align 4
  br label %56

56:                                               ; preds = %92, %55
  %57 = load i32, i32* %5, align 4
  %58 = sext i32 %57 to i64
  %59 = getelementptr inbounds [501 x i8], [501 x i8]* %4, i64 0, i64 0
  %60 = call i64 @strlen(i8* %59) #3
  %61 = icmp ult i64 %58, %60
  br i1 %61, label %62, label %95

62:                                               ; preds = %56
  %63 = load i32, i32* %5, align 4
  %64 = sext i32 %63 to i64
  %65 = getelementptr inbounds [501 x i8], [501 x i8]* %4, i64 0, i64 %64
  %66 = load i8, i8* %65, align 1
  %67 = sext i8 %66 to i32
  %68 = icmp ne i32 %67, 65
  br i1 %68, label %69, label %91

69:                                               ; preds = %62
  %70 = load i32, i32* %5, align 4
  %71 = sext i32 %70 to i64
  %72 = getelementptr inbounds [501 x i8], [501 x i8]* %4, i64 0, i64 %71
  %73 = load i8, i8* %72, align 1
  %74 = sext i8 %73 to i32
  %75 = icmp ne i32 %74, 84
  br i1 %75, label %76, label %91

76:                                               ; preds = %69
  %77 = load i32, i32* %5, align 4
  %78 = sext i32 %77 to i64
  %79 = getelementptr inbounds [501 x i8], [501 x i8]* %4, i64 0, i64 %78
  %80 = load i8, i8* %79, align 1
  %81 = sext i8 %80 to i32
  %82 = icmp ne i32 %81, 67
  br i1 %82, label %83, label %91

83:                                               ; preds = %76
  %84 = load i32, i32* %5, align 4
  %85 = sext i32 %84 to i64
  %86 = getelementptr inbounds [501 x i8], [501 x i8]* %4, i64 0, i64 %85
  %87 = load i8, i8* %86, align 1
  %88 = sext i8 %87 to i32
  %89 = icmp ne i32 %88, 71
  br i1 %89, label %90, label %91

90:                                               ; preds = %83
  store i32 1, i32* %6, align 4
  br label %91

91:                                               ; preds = %90, %83, %76, %69, %62
  br label %92

92:                                               ; preds = %91
  %93 = load i32, i32* %5, align 4
  %94 = add nsw i32 %93, 1
  store i32 %94, i32* %5, align 4
  br label %56

95:                                               ; preds = %56
  %96 = getelementptr inbounds [501 x i8], [501 x i8]* %3, i64 0, i64 0
  %97 = call i64 @strlen(i8* %96) #3
  %98 = getelementptr inbounds [501 x i8], [501 x i8]* %4, i64 0, i64 0
  %99 = call i64 @strlen(i8* %98) #3
  %100 = icmp ne i64 %97, %99
  br i1 %100, label %104, label %101

101:                                              ; preds = %95
  %102 = load i32, i32* %6, align 4
  %103 = icmp eq i32 %102, 1
  br i1 %103, label %104, label %106

104:                                              ; preds = %101, %95
  %105 = call i32 (i8*, ...) @printf(i8* getelementptr inbounds ([6 x i8], [6 x i8]* @.str.3, i64 0, i64 0))
  br label %150

106:                                              ; preds = %101
  store i32 0, i32* %8, align 4
  store i32 0, i32* %7, align 4
  br label %107

107:                                              ; preds = %129, %106
  %108 = load i32, i32* %7, align 4
  %109 = sext i32 %108 to i64
  %110 = getelementptr inbounds [501 x i8], [501 x i8]* %3, i64 0, i64 0
  %111 = call i64 @strlen(i8* %110) #3
  %112 = icmp ult i64 %109, %111
  br i1 %112, label %113, label %132

113:                                              ; preds = %107
  %114 = load i32, i32* %7, align 4
  %115 = sext i32 %114 to i64
  %116 = getelementptr inbounds [501 x i8], [501 x i8]* %3, i64 0, i64 %115
  %117 = load i8, i8* %116, align 1
  %118 = sext i8 %117 to i32
  %119 = load i32, i32* %7, align 4
  %120 = sext i32 %119 to i64
  %121 = getelementptr inbounds [501 x i8], [501 x i8]* %4, i64 0, i64 %120
  %122 = load i8, i8* %121, align 1
  %123 = sext i8 %122 to i32
  %124 = icmp eq i32 %118, %123
  br i1 %124, label %125, label %128

125:                                              ; preds = %113
  %126 = load i32, i32* %8, align 4
  %127 = add nsw i32 %126, 1
  store i32 %127, i32* %8, align 4
  br label %128

128:                                              ; preds = %125, %113
  br label %129

129:                                              ; preds = %128
  %130 = load i32, i32* %7, align 4
  %131 = add nsw i32 %130, 1
  store i32 %131, i32* %7, align 4
  br label %107

132:                                              ; preds = %107
  %133 = getelementptr inbounds [501 x i8], [501 x i8]* %3, i64 0, i64 0
  %134 = call i64 @strlen(i8* %133) #3
  %135 = trunc i64 %134 to i32
  store i32 %135, i32* %10, align 4
  %136 = load i32, i32* %8, align 4
  %137 = sitofp i32 %136 to double
  %138 = fmul double %137, 1.000000e+00
  %139 = load i32, i32* %10, align 4
  %140 = sitofp i32 %139 to double
  %141 = fdiv double %138, %140
  store double %141, double* %9, align 8
  %142 = load double, double* %9, align 8
  %143 = load double, double* %2, align 8
  %144 = fcmp ogt double %142, %143
  br i1 %144, label %145, label %147

145:                                              ; preds = %132
  %146 = call i32 (i8*, ...) @printf(i8* getelementptr inbounds ([4 x i8], [4 x i8]* @.str.4, i64 0, i64 0))
  br label %149

147:                                              ; preds = %132
  %148 = call i32 (i8*, ...) @printf(i8* getelementptr inbounds ([3 x i8], [3 x i8]* @.str.5, i64 0, i64 0))
  br label %149

149:                                              ; preds = %147, %145
  br label %150

150:                                              ; preds = %149, %104
  ret i32 0
}

declare dso_local i32 @__isoc99_scanf(i8*, ...) #1

; Function Attrs: nounwind readonly
declare dso_local i64 @strlen(i8*) #2

declare dso_local i32 @printf(i8*, ...) #1


!llvm.module.flags = !{!0}
!llvm.ident = !{!1}

!0 = !{i32 1, !"wchar_size", i32 4}
!1 = !{!"clang version 10.0.0-4ubuntu1 "}
